; Function Attrs: nounwind uwtable
define hidden void @zif_opcache_is_script_cached(ptr noundef %0, ptr nocapture noundef writeonly %1) #0 {
  %3 = alloca %struct._zend_file_handle, align 8
  %4 = alloca ptr, align 8
  %5 = getelementptr inbounds i8, ptr %0, i64 44
  %6 = load i32, ptr %5, align 4
  %cond = icmp eq i32 %6, 1
  br i1 %cond, label %8, label %7

7:                                                ; preds = %2
  tail call void @zend_wrong_parameters_count_error(i32 noundef 1, i32 noundef 1) #14
  br label %.thread89

8:                                                ; preds = %2
  %9 = getelementptr inbounds i8, ptr %0, i64 80
  %10 = getelementptr inbounds i8, ptr %0, i64 88
  %11 = load i8, ptr %10, align 8
  %12 = icmp eq i8 %11, 6
  br i1 %12, label %.thread78, label %14

.thread78:                                        ; preds = %8
  %13 = load ptr, ptr %9, align 8
  store ptr %13, ptr %4, align 8
  br label %.thread82

14:                                               ; preds = %8
  %15 = call zeroext i1 @zend_parse_arg_str_slow(ptr noundef nonnull %9, ptr noundef nonnull %4, i32 noundef 1) #14
  %.fr = freeze i1 %15
  br i1 %.fr, label %.thread82, label %.thread89

.thread89:                                        ; preds = %14, %7
  %.098 = phi i32 [ 1, %7 ], [ 9, %14 ]
  %.05497 = phi i32 [ 0, %7 ], [ 1, %14 ]
  %.05596 = phi i32 [ 0, %7 ], [ 4, %14 ]
  %.05695 = phi ptr [ null, %7 ], [ %9, %14 ]
  call void @zend_wrong_parameter_error(i32 noundef %.098, i32 noundef %.05497, ptr noundef null, i32 noundef %.05596, ptr noundef %.05695) #14
  br label %52

.thread82:                                        ; preds = %14, %.thread78
  %16 = load ptr, ptr getelementptr inbounds (%struct._zend_accel_globals, ptr @accel_globals, i64 0, i32 5, i32 25), align 8
  %.not.i = icmp eq ptr %16, null
  br i1 %.not.i, label %28, label %17

17:                                               ; preds = %.thread82
  %18 = load i8, ptr %16, align 1
  %.not6.i = icmp eq i8 %18, 0
  br i1 %.not6.i, label %28, label %19

19:                                               ; preds = %17
  %20 = call i64 @strlen(ptr noundef nonnull dereferenceable(1) %16) #15
  %21 = load ptr, ptr getelementptr inbounds (%struct._sapi_globals_struct, ptr @sapi_globals, i64 0, i32 1, i32 4), align 8
  %.not7.i = icmp eq ptr %21, null
  br i1 %.not7.i, label %26, label %22

22:                                               ; preds = %19
  %23 = call i64 @strlen(ptr noundef nonnull dereferenceable(1) %21) #15
  %24 = icmp ult i64 %23, %20
  br i1 %24, label %26, label %25

25:                                               ; preds = %22
  %bcmp.i = call i32 @bcmp(ptr nonnull %21, ptr nonnull %16, i64 %20)
  %.not8.i = icmp eq i32 %bcmp.i, 0
  br i1 %.not8.i, label %28, label %26

26:                                               ; preds = %25, %22, %19
  call void (i32, ptr, ...) @zend_error(i32 noundef 2, ptr noundef nonnull @.str.180) #14
  %27 = getelementptr inbounds i8, ptr %1, i64 8
  store i32 2, ptr %27, align 8
  br label %52

28:                                               ; preds = %25, %17, %.thread82
  %29 = load i8, ptr getelementptr inbounds (%struct._zend_accel_globals, ptr @accel_globals, i64 0, i32 3), align 1
  %30 = and i8 %29, 1
  %.not61 = icmp eq i8 %30, 0
  br i1 %.not61, label %31, label %33

31:                                               ; preds = %28
  %32 = getelementptr inbounds i8, ptr %1, i64 8
  store i32 2, ptr %32, align 8
  br label %52

33:                                               ; preds = %28
  %34 = load ptr, ptr %4, align 8
  call void @llvm.lifetime.start.p0(i64 80, ptr nonnull %3)
  %35 = call ptr @accel_make_persistent_key(ptr noundef %34) #14
  %.not.i65 = icmp eq ptr %35, null
  br i1 %.not.i65, label %filename_is_in_cache.exit.thread, label %36

36:                                               ; preds = %33
  %37 = load ptr, ptr @accel_shared_globals, align 8
  %38 = getelementptr inbounds i8, ptr %37, i64 48
  %39 = call ptr @zend_accel_hash_find(ptr noundef nonnull %38, ptr noundef nonnull %35) #14
  %.not10.i = icmp eq ptr %39, null
  br i1 %.not10.i, label %filename_is_in_cache.exit.thread, label %40

40:                                               ; preds = %36
  %41 = getelementptr inbounds i8, ptr %39, i64 384
  %42 = load i8, ptr %41, align 8
  %43 = and i8 %42, 1
  %.not11.i = icmp eq i8 %43, 0
  br i1 %.not11.i, label %44, label %filename_is_in_cache.exit.thread

44:                                               ; preds = %40
  %45 = load i8, ptr getelementptr inbounds (%struct._zend_accel_globals, ptr @accel_globals, i64 0, i32 5, i32 7), align 2
  %46 = and i8 %45, 1
  %.not12.i = icmp eq i8 %46, 0
  br i1 %.not12.i, label %filename_is_in_cache.exit.thread106, label %filename_is_in_cache.exit

filename_is_in_cache.exit.thread106:              ; preds = %44
  call void @llvm.lifetime.end.p0(i64 80, ptr nonnull %3)
  br label %49

filename_is_in_cache.exit.thread:                 ; preds = %36, %40, %33
  call void @llvm.lifetime.end.p0(i64 80, ptr nonnull %3)
  br label %48

filename_is_in_cache.exit:                        ; preds = %44
  call void @zend_stream_init_filename_ex(ptr noundef nonnull %3, ptr noundef %34) #14
  %47 = call i32 @validate_timestamp_and_record_ex(ptr noundef nonnull %39, ptr noundef nonnull %3) #14
  %.fr110 = freeze i32 %47
  %.not = icmp eq i32 %.fr110, 0
  call void @zend_destroy_file_handle(ptr noundef nonnull %3) #14
  call void @llvm.lifetime.end.p0(i64 80, ptr nonnull %3)
  br i1 %.not, label %49, label %48

48:                                               ; preds = %filename_is_in_cache.exit.thread, %filename_is_in_cache.exit
  br label %49

49:                                               ; preds = %filename_is_in_cache.exit.thread106, %filename_is_in_cache.exit, %48
  %50 = phi i32 [ 2, %48 ], [ 3, %filename_is_in_cache.exit ], [ 3, %filename_is_in_cache.exit.thread106 ]
  %51 = getelementptr inbounds i8, ptr %1, i64 8
  store i32 %50, ptr %51, align 8
  br label %52

52:                                               ; preds = %49, %31, %26, %.thread89
  ret void
}